target datalayout = "e-m:e-p270:32:32-p271:32:32-p272:64:64-i64:64-i128:128-f80:128-n8:16:32:64-S128"
target triple = "x86_64-pc-linux-gnu"

%union.H5Z_num_val = type { ptr }
%struct.H5Z_node = type { ptr, ptr, i32, %union.H5Z_num_val }

@H5Z_init_g = external global i8, align 1
@H5_libterm_g = external global i8, align 1

; Function Attrs: nounwind uwtable
define internal zeroext i1 @H5Z__op_is_numbs2(ptr noundef %0) #0 {
  %2 = alloca ptr, align 8
  %3 = alloca i8, align 1
  store ptr %0, ptr %2, align 8, !tbaa !23
  call void @llvm.lifetime.start.p0(i64 1, ptr %3) #11
  store i8 0, ptr %3, align 1, !tbaa !15
  %4 = load i8, ptr @H5Z_init_g, align 1, !tbaa !15, !range !17, !noundef !18
  %5 = trunc i8 %4 to i1
  br i1 %5, label %10, label %6

6:                                                ; preds = %1
  %7 = load i8, ptr @H5_libterm_g, align 1, !tbaa !15, !range !17, !noundef !18
  %8 = trunc i8 %7 to i1
  %9 = xor i1 %8, true
  br label %10

10:                                               ; preds = %6, %1
  %11 = phi i1 [ true, %1 ], [ %9, %6 ]
  %12 = xor i1 %11, true
  %13 = xor i1 %12, true
  %14 = zext i1 %13 to i32
  %15 = sext i32 %14 to i64
  %16 = call i64 @llvm.expect.i64(i64 %15, i64 1)
  %17 = icmp ne i64 %16, 0
  br i1 %17, label %18, label %77

18:                                               ; preds = %10
  %19 = load ptr, ptr %2, align 8, !tbaa !23
  %20 = getelementptr inbounds nuw %struct.H5Z_node, ptr %19, i32 0, i32 0
  %21 = load ptr, ptr %20, align 8, !tbaa !49
  %22 = icmp ne ptr %21, null
  br i1 %22, label %37, label %23

23:                                               ; preds = %18
  %24 = load ptr, ptr %2, align 8, !tbaa !23
  %25 = getelementptr inbounds nuw %struct.H5Z_node, ptr %24, i32 0, i32 1
  %26 = load ptr, ptr %25, align 8, !tbaa !50
  %27 = getelementptr inbounds nuw %struct.H5Z_node, ptr %26, i32 0, i32 2
  %28 = load i32, ptr %27, align 8, !tbaa !24
  %29 = icmp eq i32 %28, 1
  br i1 %29, label %75, label %30

30:                                               ; preds = %23
  %31 = load ptr, ptr %2, align 8, !tbaa !23
  %32 = getelementptr inbounds nuw %struct.H5Z_node, ptr %31, i32 0, i32 1
  %33 = load ptr, ptr %32, align 8, !tbaa !50
  %34 = getelementptr inbounds nuw %struct.H5Z_node, ptr %33, i32 0, i32 2
  %35 = load i32, ptr %34, align 8, !tbaa !24
  %36 = icmp eq i32 %35, 2
  br i1 %36, label %75, label %37

37:                                               ; preds = %30, %18
  %38 = load ptr, ptr %2, align 8, !tbaa !23
  %39 = getelementptr inbounds nuw %struct.H5Z_node, ptr %38, i32 0, i32 0
  %40 = load ptr, ptr %39, align 8, !tbaa !49
  %41 = icmp ne ptr %40, null
  br i1 %41, label %42, label %76

42:                                               ; preds = %37
  %43 = load ptr, ptr %2, align 8, !tbaa !23
  %44 = getelementptr inbounds nuw %struct.H5Z_node, ptr %43, i32 0, i32 0
  %45 = load ptr, ptr %44, align 8, !tbaa !49
  %46 = getelementptr inbounds nuw %struct.H5Z_node, ptr %45, i32 0, i32 2
  %47 = load i32, ptr %46, align 8, !tbaa !24
  %48 = icmp eq i32 %47, 1
  br i1 %48, label %56, label %49

49:                                               ; preds = %42
  %50 = load ptr, ptr %2, align 8, !tbaa !23
  %51 = getelementptr inbounds nuw %struct.H5Z_node, ptr %50, i32 0, i32 0
  %52 = load ptr, ptr %51, align 8, !tbaa !49
  %53 = getelementptr inbounds nuw %struct.H5Z_node, ptr %52, i32 0, i32 2
  %54 = load i32, ptr %53, align 8, !tbaa !24
  %55 = icmp eq i32 %54, 2
  br i1 %55, label %56, label %76

56:                                               ; preds = %49, %42
  %57 = load ptr, ptr %2, align 8, !tbaa !23
  %58 = getelementptr inbounds nuw %struct.H5Z_node, ptr %57, i32 0, i32 1
  %59 = load ptr, ptr %58, align 8, !tbaa !50
  %60 = icmp ne ptr %59, null
  br i1 %60, label %61, label %76

61:                                               ; preds = %56
  %62 = load ptr, ptr %2, align 8, !tbaa !23
  %63 = getelementptr inbounds nuw %struct.H5Z_node, ptr %62, i32 0, i32 1
  %64 = load ptr, ptr %63, align 8, !tbaa !50
  %65 = getelementptr inbounds nuw %struct.H5Z_node, ptr %64, i32 0, i32 2
  %66 = load i32, ptr %65, align 8, !tbaa !24
  %67 = icmp eq i32 %66, 1
  br i1 %67, label %75, label %68

68:                                               ; preds = %61
  %69 = load ptr, ptr %2, align 8, !tbaa !23
  %70 = getelementptr inbounds nuw %struct.H5Z_node, ptr %69, i32 0, i32 1
  %71 = load ptr, ptr %70, align 8, !tbaa !50
  %72 = getelementptr inbounds nuw %struct.H5Z_node, ptr %71, i32 0, i32 2
  %73 = load i32, ptr %72, align 8, !tbaa !24
  %74 = icmp eq i32 %73, 2
  br i1 %74, label %75, label %76

75:                                               ; preds = %68, %61, %30, %23
  store i8 1, ptr %3, align 1, !tbaa !15
  br label %76

76:                                               ; preds = %75, %68, %56, %49, %37
  br label %77

77:                                               ; preds = %76, %10
  %78 = load i8, ptr %3, align 1, !tbaa !15, !range !17, !noundef !18
  %79 = trunc i8 %78 to i1
  call void @llvm.lifetime.end.p0(i64 1, ptr %3) #11
  ret i1 %79
}

; Function Attrs: nounwind uwtable
define internal zeroext i1 @H5Z__op_is_numbs(ptr noundef %0) #0 {
  %2 = alloca ptr, align 8
  %3 = alloca i8, align 1
  store ptr %0, ptr %2, align 8, !tbaa !23
  call void @llvm.lifetime.start.p0(i64 1, ptr %3) #11
  store i8 0, ptr %3, align 1, !tbaa !15
  %4 = load i8, ptr @H5Z_init_g, align 1, !tbaa !15, !range !17, !noundef !18
  %5 = trunc i8 %4 to i1
  br i1 %5, label %10, label %6

6:                                                ; preds = %1
  %7 = load i8, ptr @H5_libterm_g, align 1, !tbaa !15, !range !17, !noundef !18
  %8 = trunc i8 %7 to i1
  %9 = xor i1 %8, true
  br label %10

10:                                               ; preds = %6, %1
  %11 = phi i1 [ true, %1 ], [ %9, %6 ]
  %12 = xor i1 %11, true
  %13 = xor i1 %12, true
  %14 = zext i1 %13 to i32
  %15 = sext i32 %14 to i64
  %16 = call i64 @llvm.expect.i64(i64 %15, i64 1)
  %17 = icmp ne i64 %16, 0
  br i1 %17, label %18, label %48

18:                                               ; preds = %10
  %19 = load ptr, ptr %2, align 8, !tbaa !23
  %20 = getelementptr inbounds nuw %struct.H5Z_node, ptr %19, i32 0, i32 0
  %21 = load ptr, ptr %20, align 8, !tbaa !49
  %22 = getelementptr inbounds nuw %struct.H5Z_node, ptr %21, i32 0, i32 2
  %23 = load i32, ptr %22, align 8, !tbaa !24
  %24 = icmp eq i32 %23, 1
  br i1 %24, label %32, label %25

25:                                               ; preds = %18
  %26 = load ptr, ptr %2, align 8, !tbaa !23
  %27 = getelementptr inbounds nuw %struct.H5Z_node, ptr %26, i32 0, i32 0
  %28 = load ptr, ptr %27, align 8, !tbaa !49
  %29 = getelementptr inbounds nuw %struct.H5Z_node, ptr %28, i32 0, i32 2
  %30 = load i32, ptr %29, align 8, !tbaa !24
  %31 = icmp eq i32 %30, 2
  br i1 %31, label %32, label %47

32:                                               ; preds = %25, %18
  %33 = load ptr, ptr %2, align 8, !tbaa !23
  %34 = getelementptr inbounds nuw %struct.H5Z_node, ptr %33, i32 0, i32 1
  %35 = load ptr, ptr %34, align 8, !tbaa !50
  %36 = getelementptr inbounds nuw %struct.H5Z_node, ptr %35, i32 0, i32 2
  %37 = load i32, ptr %36, align 8, !tbaa !24
  %38 = icmp eq i32 %37, 1
  br i1 %38, label %46, label %39

39:                                               ; preds = %32
  %40 = load ptr, ptr %2, align 8, !tbaa !23
  %41 = getelementptr inbounds nuw %struct.H5Z_node, ptr %40, i32 0, i32 1
  %42 = load ptr, ptr %41, align 8, !tbaa !50
  %43 = getelementptr inbounds nuw %struct.H5Z_node, ptr %42, i32 0, i32 2
  %44 = load i32, ptr %43, align 8, !tbaa !24
  %45 = icmp eq i32 %44, 2
  br i1 %45, label %46, label %47

46:                                               ; preds = %39, %32
  store i8 1, ptr %3, align 1, !tbaa !15
  br label %47

47:                                               ; preds = %46, %39, %25
  br label %48

48:                                               ; preds = %47, %10
  %49 = load i8, ptr %3, align 1, !tbaa !15, !range !17, !noundef !18
  %50 = trunc i8 %49 to i1
  call void @llvm.lifetime.end.p0(i64 1, ptr %3) #11
  ret i1 %50
}

; Function Attrs: nounwind uwtable
define internal void @H5Z__xform_reduce_tree(ptr noundef %0) #0 {
  %2 = alloca ptr, align 8
  store ptr %0, ptr %2, align 8, !tbaa !23
  %3 = load i8, ptr @H5Z_init_g, align 1, !tbaa !15, !range !17, !noundef !18
  %4 = trunc i8 %3 to i1
  br i1 %4, label %9, label %5

5:                                                ; preds = %1
  %6 = load i8, ptr @H5_libterm_g, align 1, !tbaa !15, !range !17, !noundef !18
  %7 = trunc i8 %6 to i1
  %8 = xor i1 %7, true
  br label %9

9:                                                ; preds = %5, %1
  %10 = phi i1 [ true, %1 ], [ %8, %5 ]
  %11 = xor i1 %10, true
  %12 = xor i1 %11, true
  %13 = zext i1 %12 to i32
  %14 = sext i32 %13 to i64
  %15 = call i64 @llvm.expect.i64(i64 %14, i64 1)
  %16 = icmp ne i64 %15, 0
  br i1 %16, label %17, label %91

17:                                               ; preds = %9
  %18 = load ptr, ptr %2, align 8, !tbaa !23
  %19 = icmp ne ptr %18, null
  br i1 %19, label %20, label %90

20:                                               ; preds = %17
  %21 = load ptr, ptr %2, align 8, !tbaa !23
  %22 = getelementptr inbounds nuw %struct.H5Z_node, ptr %21, i32 0, i32 2
  %23 = load i32, ptr %22, align 8, !tbaa !24
  %24 = icmp eq i32 %23, 7
  br i1 %24, label %30, label %25

25:                                               ; preds = %20
  %26 = load ptr, ptr %2, align 8, !tbaa !23
  %27 = getelementptr inbounds nuw %struct.H5Z_node, ptr %26, i32 0, i32 2
  %28 = load i32, ptr %27, align 8, !tbaa !24
  %29 = icmp eq i32 %28, 6
  br i1 %29, label %30, label %54

30:                                               ; preds = %25, %20
  %31 = load ptr, ptr %2, align 8, !tbaa !23
  %32 = call zeroext i1 @H5Z__op_is_numbs(ptr noundef %31)
  br i1 %32, label %33, label %35

33:                                               ; preds = %30
  %34 = load ptr, ptr %2, align 8, !tbaa !23
  call void @H5Z__do_op(ptr noundef %34)
  br label %53

35:                                               ; preds = %30
  %36 = load ptr, ptr %2, align 8, !tbaa !23
  %37 = getelementptr inbounds nuw %struct.H5Z_node, ptr %36, i32 0, i32 0
  %38 = load ptr, ptr %37, align 8, !tbaa !49
  call void @H5Z__xform_reduce_tree(ptr noundef %38)
  %39 = load ptr, ptr %2, align 8, !tbaa !23
  %40 = call zeroext i1 @H5Z__op_is_numbs(ptr noundef %39)
  br i1 %40, label %41, label %43

41:                                               ; preds = %35
  %42 = load ptr, ptr %2, align 8, !tbaa !23
  call void @H5Z__do_op(ptr noundef %42)
  br label %52

43:                                               ; preds = %35
  %44 = load ptr, ptr %2, align 8, !tbaa !23
  %45 = getelementptr inbounds nuw %struct.H5Z_node, ptr %44, i32 0, i32 1
  %46 = load ptr, ptr %45, align 8, !tbaa !50
  call void @H5Z__xform_reduce_tree(ptr noundef %46)
  %47 = load ptr, ptr %2, align 8, !tbaa !23
  %48 = call zeroext i1 @H5Z__op_is_numbs(ptr noundef %47)
  br i1 %48, label %49, label %51

49:                                               ; preds = %43
  %50 = load ptr, ptr %2, align 8, !tbaa !23
  call void @H5Z__do_op(ptr noundef %50)
  br label %51

51:                                               ; preds = %49, %43
  br label %52

52:                                               ; preds = %51, %41
  br label %53

53:                                               ; preds = %52, %33
  br label %89

54:                                               ; preds = %25
  %55 = load ptr, ptr %2, align 8, !tbaa !23
  %56 = getelementptr inbounds nuw %struct.H5Z_node, ptr %55, i32 0, i32 2
  %57 = load i32, ptr %56, align 8, !tbaa !24
  %58 = icmp eq i32 %57, 4
  br i1 %58, label %64, label %59

59:                                               ; preds = %54
  %60 = load ptr, ptr %2, align 8, !tbaa !23
  %61 = getelementptr inbounds nuw %struct.H5Z_node, ptr %60, i32 0, i32 2
  %62 = load i32, ptr %61, align 8, !tbaa !24
  %63 = icmp eq i32 %62, 5
  br i1 %63, label %64, label %88

64:                                               ; preds = %59, %54
  %65 = load ptr, ptr %2, align 8, !tbaa !23
  %66 = call zeroext i1 @H5Z__op_is_numbs2(ptr noundef %65)
  br i1 %66, label %67, label %69

67:                                               ; preds = %64
  %68 = load ptr, ptr %2, align 8, !tbaa !23
  call void @H5Z__do_op(ptr noundef %68)
  br label %87

69:                                               ; preds = %64
  %70 = load ptr, ptr %2, align 8, !tbaa !23
  %71 = getelementptr inbounds nuw %struct.H5Z_node, ptr %70, i32 0, i32 0
  %72 = load ptr, ptr %71, align 8, !tbaa !49
  call void @H5Z__xform_reduce_tree(ptr noundef %72)
  %73 = load ptr, ptr %2, align 8, !tbaa !23
  %74 = call zeroext i1 @H5Z__op_is_numbs2(ptr noundef %73)
  br i1 %74, label %75, label %77

75:                                               ; preds = %69
  %76 = load ptr, ptr %2, align 8, !tbaa !23
  call void @H5Z__do_op(ptr noundef %76)
  br label %86

77:                                               ; preds = %69
  %78 = load ptr, ptr %2, align 8, !tbaa !23
  %79 = getelementptr inbounds nuw %struct.H5Z_node, ptr %78, i32 0, i32 1
  %80 = load ptr, ptr %79, align 8, !tbaa !50
  call void @H5Z__xform_reduce_tree(ptr noundef %80)
  %81 = load ptr, ptr %2, align 8, !tbaa !23
  %82 = call zeroext i1 @H5Z__op_is_numbs2(ptr noundef %81)
  br i1 %82, label %83, label %85

83:                                               ; preds = %77
  %84 = load ptr, ptr %2, align 8, !tbaa !23
  call void @H5Z__do_op(ptr noundef %84)
  br label %85

85:                                               ; preds = %83, %77
  br label %86

86:                                               ; preds = %85, %75
  br label %87

87:                                               ; preds = %86, %67
  br label %88

88:                                               ; preds = %87, %59
  br label %89

89:                                               ; preds = %88, %53
  br label %90

90:                                               ; preds = %89, %17
  br label %91

91:                                               ; preds = %90, %9
  ret void
}