; Function Attrs: nounwind uwtable
define internal fastcc void @H5Z__xform_reduce_tree(ptr noundef captures(address_is_null) %0) unnamed_addr #0 {
  %2 = load i8, ptr @H5Z_init_g, align 1, !tbaa !3, !range !7, !noundef !8
  %3 = trunc nuw i8 %2 to i1
  %4 = load i8, ptr @H5_libterm_g, align 1, !range !7
  %5 = trunc nuw i8 %4 to i1
  %6 = xor i1 %5, true
  %7 = select i1 %3, i1 true, i1 %6
  %8 = icmp ne ptr %0, null
  %or.cond = and i1 %8, %7
  br i1 %or.cond, label %9, label %H5Z__op_is_numbs.exit34.thread, !prof !209

9:                                                ; preds = %1
  %10 = getelementptr inbounds nuw i8, ptr %0, i64 16
  %11 = load i32, ptr %10, align 8, !tbaa !17
  switch i32 %11, label %H5Z__op_is_numbs.exit34.thread [
    i32 7, label %12
    i32 6, label %12
    i32 4, label %49
    i32 5, label %49
  ]

12:                                               ; preds = %9, %9
  %13 = load ptr, ptr %0, align 8, !tbaa !43
  %14 = getelementptr inbounds nuw i8, ptr %13, i64 16
  %15 = load i32, ptr %14, align 8, !tbaa !17
  %.off.i = add i32 %15, -1
  %switch.i = icmp ult i32 %.off.i, 2
  br i1 %switch.i, label %H5Z__op_is_numbs.exit, label %H5Z__op_is_numbs.exit.thread

H5Z__op_is_numbs.exit:                            ; preds = %12
  %16 = getelementptr inbounds nuw i8, ptr %0, i64 8
  %17 = load ptr, ptr %16, align 8, !tbaa !44
  %18 = getelementptr inbounds nuw i8, ptr %17, i64 16
  %19 = load i32, ptr %18, align 8, !tbaa !17
  %.off6.i = add i32 %19, -1
  %switch7.i = icmp ult i32 %.off6.i, 2
  br i1 %switch7.i, label %H5Z__op_is_numbs.exit34.thread.sink.split, label %H5Z__op_is_numbs.exit.thread

H5Z__op_is_numbs.exit.thread:                     ; preds = %12, %H5Z__op_is_numbs.exit
  tail call fastcc void @H5Z__xform_reduce_tree(ptr noundef nonnull %13)
  %20 = load i8, ptr @H5Z_init_g, align 1, !tbaa !3, !range !7, !noundef !8
  %21 = trunc nuw i8 %20 to i1
  %22 = load i8, ptr @H5_libterm_g, align 1, !range !7
  %23 = trunc nuw i8 %22 to i1
  %24 = xor i1 %23, true
  %25 = select i1 %21, i1 true, i1 %24
  br i1 %25, label %26, label %H5Z__op_is_numbs.exit28.thread, !prof !9

26:                                               ; preds = %H5Z__op_is_numbs.exit.thread
  %27 = load ptr, ptr %0, align 8, !tbaa !43
  %28 = getelementptr inbounds nuw i8, ptr %27, i64 16
  %29 = load i32, ptr %28, align 8, !tbaa !17
  %.off.i24 = add i32 %29, -1
  %switch.i25 = icmp ult i32 %.off.i24, 2
  br i1 %switch.i25, label %H5Z__op_is_numbs.exit28, label %H5Z__op_is_numbs.exit28.thread

H5Z__op_is_numbs.exit28:                          ; preds = %26
  %30 = getelementptr inbounds nuw i8, ptr %0, i64 8
  %31 = load ptr, ptr %30, align 8, !tbaa !44
  %32 = getelementptr inbounds nuw i8, ptr %31, i64 16
  %33 = load i32, ptr %32, align 8, !tbaa !17
  %.off6.i26 = add i32 %33, -1
  %switch7.i27 = icmp ult i32 %.off6.i26, 2
  br i1 %switch7.i27, label %H5Z__op_is_numbs.exit34.thread.sink.split, label %H5Z__op_is_numbs.exit28.thread

H5Z__op_is_numbs.exit28.thread:                   ; preds = %26, %H5Z__op_is_numbs.exit.thread, %H5Z__op_is_numbs.exit28
  %34 = getelementptr inbounds nuw i8, ptr %0, i64 8
  %35 = load ptr, ptr %34, align 8, !tbaa !44
  tail call fastcc void @H5Z__xform_reduce_tree(ptr noundef %35)
  %36 = load i8, ptr @H5Z_init_g, align 1, !tbaa !3, !range !7, !noundef !8
  %37 = trunc nuw i8 %36 to i1
  %38 = load i8, ptr @H5_libterm_g, align 1, !range !7
  %39 = trunc nuw i8 %38 to i1
  %40 = xor i1 %39, true
  %41 = select i1 %37, i1 true, i1 %40
  br i1 %41, label %42, label %H5Z__op_is_numbs.exit34.thread, !prof !9

42:                                               ; preds = %H5Z__op_is_numbs.exit28.thread
  %43 = load ptr, ptr %0, align 8, !tbaa !43
  %44 = getelementptr inbounds nuw i8, ptr %43, i64 16
  %45 = load i32, ptr %44, align 8, !tbaa !17
  %.off.i30 = add i32 %45, -1
  %switch.i31 = icmp ult i32 %.off.i30, 2
  br i1 %switch.i31, label %H5Z__op_is_numbs.exit34, label %H5Z__op_is_numbs.exit34.thread

H5Z__op_is_numbs.exit34:                          ; preds = %42
  %46 = load ptr, ptr %34, align 8, !tbaa !44
  %47 = getelementptr inbounds nuw i8, ptr %46, i64 16
  %48 = load i32, ptr %47, align 8, !tbaa !17
  %.off6.i32 = add i32 %48, -1
  %switch7.i33 = icmp ult i32 %.off6.i32, 2
  br i1 %switch7.i33, label %H5Z__op_is_numbs.exit34.thread.sink.split, label %H5Z__op_is_numbs.exit34.thread

49:                                               ; preds = %9, %9
  %50 = load ptr, ptr %0, align 8, !tbaa !43
  %.not.i = icmp eq ptr %50, null
  br i1 %.not.i, label %51, label %56

51:                                               ; preds = %49
  %52 = getelementptr inbounds nuw i8, ptr %0, i64 8
  %53 = load ptr, ptr %52, align 8, !tbaa !44
  %54 = getelementptr inbounds nuw i8, ptr %53, i64 16
  %55 = load i32, ptr %54, align 8, !tbaa !17
  %.off.i36 = add i32 %55, -1
  %switch.i37 = icmp ult i32 %.off.i36, 2
  br i1 %switch.i37, label %H5Z__op_is_numbs.exit34.thread.sink.split, label %65

56:                                               ; preds = %49
  %57 = getelementptr inbounds nuw i8, ptr %50, i64 16
  %58 = load i32, ptr %57, align 8, !tbaa !17
  %.off16.i = add i32 %58, -1
  %switch17.i = icmp ult i32 %.off16.i, 2
  br i1 %switch17.i, label %59, label %65

59:                                               ; preds = %56
  %60 = getelementptr inbounds nuw i8, ptr %0, i64 8
  %61 = load ptr, ptr %60, align 8, !tbaa !44
  %.not15.i = icmp eq ptr %61, null
  br i1 %.not15.i, label %65, label %62

62:                                               ; preds = %59
  %63 = getelementptr inbounds nuw i8, ptr %61, i64 16
  %64 = load i32, ptr %63, align 8, !tbaa !17
  %.off18.i = add i32 %64, -1
  %switch19.i = icmp ult i32 %.off18.i, 2
  br i1 %switch19.i, label %H5Z__op_is_numbs.exit34.thread.sink.split, label %65

65:                                               ; preds = %59, %56, %62, %51
  tail call fastcc void @H5Z__xform_reduce_tree(ptr noundef %50)
  %66 = load i8, ptr @H5Z_init_g, align 1, !tbaa !3, !range !7, !noundef !8
  %67 = trunc nuw i8 %66 to i1
  %68 = load i8, ptr @H5_libterm_g, align 1, !range !7
  %69 = trunc nuw i8 %68 to i1
  %70 = xor i1 %69, true
  %71 = select i1 %67, i1 true, i1 %70
  br i1 %71, label %72, label %88, !prof !9

72:                                               ; preds = %65
  %73 = load ptr, ptr %0, align 8, !tbaa !43
  %.not.i39 = icmp eq ptr %73, null
  br i1 %.not.i39, label %74, label %79

74:                                               ; preds = %72
  %75 = getelementptr inbounds nuw i8, ptr %0, i64 8
  %76 = load ptr, ptr %75, align 8, !tbaa !44
  %77 = getelementptr inbounds nuw i8, ptr %76, i64 16
  %78 = load i32, ptr %77, align 8, !tbaa !17
  %.off.i45 = add i32 %78, -1
  %switch.i46 = icmp ult i32 %.off.i45, 2
  br i1 %switch.i46, label %H5Z__op_is_numbs.exit34.thread.sink.split, label %88

79:                                               ; preds = %72
  %80 = getelementptr inbounds nuw i8, ptr %73, i64 16
  %81 = load i32, ptr %80, align 8, !tbaa !17
  %.off16.i40 = add i32 %81, -1
  %switch17.i41 = icmp ult i32 %.off16.i40, 2
  br i1 %switch17.i41, label %82, label %88

82:                                               ; preds = %79
  %83 = getelementptr inbounds nuw i8, ptr %0, i64 8
  %84 = load ptr, ptr %83, align 8, !tbaa !44
  %.not15.i42 = icmp eq ptr %84, null
  br i1 %.not15.i42, label %88, label %85

85:                                               ; preds = %82
  %86 = getelementptr inbounds nuw i8, ptr %84, i64 16
  %87 = load i32, ptr %86, align 8, !tbaa !17
  %.off18.i43 = add i32 %87, -1
  %switch19.i44 = icmp ult i32 %.off18.i43, 2
  br i1 %switch19.i44, label %H5Z__op_is_numbs.exit34.thread.sink.split, label %88

88:                                               ; preds = %82, %65, %79, %85, %74
  %89 = getelementptr inbounds nuw i8, ptr %0, i64 8
  %90 = load ptr, ptr %89, align 8, !tbaa !44
  tail call fastcc void @H5Z__xform_reduce_tree(ptr noundef %90)
  %91 = load i8, ptr @H5Z_init_g, align 1, !tbaa !3, !range !7, !noundef !8
  %92 = trunc nuw i8 %91 to i1
  %93 = load i8, ptr @H5_libterm_g, align 1, !range !7
  %94 = trunc nuw i8 %93 to i1
  %95 = xor i1 %94, true
  %96 = select i1 %92, i1 true, i1 %95
  br i1 %96, label %97, label %H5Z__op_is_numbs.exit34.thread, !prof !9

97:                                               ; preds = %88
  %98 = load ptr, ptr %0, align 8, !tbaa !43
  %.not.i49 = icmp eq ptr %98, null
  br i1 %.not.i49, label %99, label %103

99:                                               ; preds = %97
  %100 = load ptr, ptr %89, align 8, !tbaa !44
  %101 = getelementptr inbounds nuw i8, ptr %100, i64 16
  %102 = load i32, ptr %101, align 8, !tbaa !17
  %.off.i55 = add i32 %102, -1
  %switch.i56 = icmp ult i32 %.off.i55, 2
  br i1 %switch.i56, label %H5Z__op_is_numbs.exit34.thread.sink.split, label %H5Z__op_is_numbs.exit34.thread

103:                                              ; preds = %97
  %104 = getelementptr inbounds nuw i8, ptr %98, i64 16
  %105 = load i32, ptr %104, align 8, !tbaa !17
  %.off16.i50 = add i32 %105, -1
  %switch17.i51 = icmp ult i32 %.off16.i50, 2
  br i1 %switch17.i51, label %106, label %H5Z__op_is_numbs.exit34.thread

106:                                              ; preds = %103
  %107 = load ptr, ptr %89, align 8, !tbaa !44
  %.not15.i52 = icmp eq ptr %107, null
  br i1 %.not15.i52, label %H5Z__op_is_numbs.exit34.thread, label %108

108:                                              ; preds = %106
  %109 = getelementptr inbounds nuw i8, ptr %107, i64 16
  %110 = load i32, ptr %109, align 8, !tbaa !17
  %.off18.i53 = add i32 %110, -1
  %switch19.i54 = icmp ult i32 %.off18.i53, 2
  br i1 %switch19.i54, label %H5Z__op_is_numbs.exit34.thread.sink.split, label %H5Z__op_is_numbs.exit34.thread

H5Z__op_is_numbs.exit34.thread.sink.split:        ; preds = %99, %108, %74, %85, %51, %62, %H5Z__op_is_numbs.exit34, %H5Z__op_is_numbs.exit28, %H5Z__op_is_numbs.exit
  tail call fastcc void @H5Z__do_op(ptr noundef %0)
  br label %H5Z__op_is_numbs.exit34.thread

H5Z__op_is_numbs.exit34.thread:                   ; preds = %H5Z__op_is_numbs.exit34.thread.sink.split, %99, %108, %103, %88, %106, %42, %H5Z__op_is_numbs.exit28.thread, %9, %H5Z__op_is_numbs.exit34, %1
  ret void
}